Certificate:
    Data:
        Version: 3 (0x2)
        Serial Number: 2 (0x2)
    Signature Algorithm: sha256WithRSAEncryption
        Issuer: C=CN, ST=BJ, L=Beijing, O=xiaomingyk, OU=DEV, CN=xiaomingyk CA/name=server/emailAddress=zhuxiaolong05@126.com
        Validity
            Not Before: Jan  6 06:06:04 2017 GMT
            Not After : Jan  4 06:06:04 2027 GMT
        Subject: C=CN, ST=BJ, L=Beijing, O=xiaomingyk, OU=DEV, CN=client1/name=server/emailAddress=zhuxiaolong05@126.com
        Subject Public Key Info:
            Public Key Algorithm: rsaEncryption
                Public-Key: (2048 bit)
                Modulus:
                    00:e5:14:ec:6b:3b:08:a2:b2:52:a1:6b:38:59:47:
                    12:e9:3c:c1:b5:0f:5f:29:0c:e7:56:51:f5:bf:59:
                    15:6a:59:c4:f4:5e:0d:0e:14:69:53:0d:7c:19:10:
                    a9:6d:c4:9e:03:a9:e7:69:fa:71:3c:1a:aa:cf:a0:
                    0c:ec:eb:f0:47:2d:b1:1d:c2:a4:67:8e:a0:3e:c7:
                    d5:ed:86:42:8d:06:ba:ce:07:aa:a5:f6:4d:5d:d8:
                    db:0b:59:21:13:29:ac:7d:86:e6:0a:09:a2:e0:70:
                    a3:ef:c4:10:ba:6d:b6:28:23:08:a2:18:f6:96:e2:
                    51:7e:1c:9b:5b:5f:54:b3:f4:9c:b0:16:c4:51:97:
                    6a:18:7a:5c:d3:ec:ec:ff:87:40:24:9e:b9:65:c7:
                    ed:1d:a8:4d:99:24:c9:3b:1c:83:9c:8d:b9:39:a3:
                    a5:c3:bf:c8:da:73:50:47:fa:35:d6:c1:d1:89:cd:
                    b9:44:05:66:16:d2:7f:af:62:f8:86:2d:65:4c:14:
                    80:40:e6:e8:f9:e5:e2:77:ab:73:ad:2f:84:59:bd:
                    f9:32:1b:a8:21:0f:e5:91:11:54:36:6b:fa:54:58:
                    35:88:90:49:8b:fe:6d:9d:40:3d:a3:f8:ee:05:db:
                    e8:d0:2a:42:22:87:2e:e6:0b:4a:1c:a1:e8:5f:ff:
                    f3:3d
                Exponent: 65537 (0x10001)
        X509v3 extensions:
            X509v3 Basic Constraints: 
                CA:FALSE
            Netscape Comment: 
                Easy-RSA Generated Certificate
            X509v3 Subject Key Identifier: 
                B5:8A:46:06:04:63:AC:1A:77:B6:CE:A0:6B:84:37:F9:33:6A:B3:FD
            X509v3 Authority Key Identifier: 
                keyid:B8:E9:8F:90:F7:30:8A:D8:9D:15:C4:55:5B:F9:86:32:CE:17:E9:AE
                DirName:/C=CN/ST=BJ/L=Beijing/O=xiaomingyk/OU=DEV/CN=xiaomingyk CA/name=server/emailAddress=zhuxiaolong05@126.com
                serial:FD:48:1E:5B:E9:4F:FA:E6

            X509v3 Extended Key Usage: 
                TLS Web Client Authentication
            X509v3 Key Usage: 
                Digital Signature
            X509v3 Subject Alternative Name: 
                DNS:client1
    Signature Algorithm: sha256WithRSAEncryption
         6a:8f:11:90:b4:7f:3a:70:dd:5a:2b:f5:ec:8c:43:eb:1e:a5:
         9e:58:06:f3:2d:6f:cc:7e:34:15:55:9e:65:90:14:e8:ed:56:
         11:35:22:59:10:42:83:9e:e4:27:b6:90:05:0e:6a:d7:e4:73:
         86:23:55:80:c7:6a:88:f1:91:5f:db:1f:20:ef:6d:7a:68:45:
         91:f4:0c:17:d8:dd:c8:d1:17:e0:86:9c:a2:e3:c0:e4:6c:36:
         94:e0:f2:5f:ae:4b:b1:d1:5b:6e:66:41:26:89:bb:58:56:32:
         34:f7:a0:5a:cd:d7:ab:b0:94:4d:79:03:39:82:e5:c7:6d:3f:
         3f:cd:ac:59:88:54:1d:b6:62:12:38:af:ca:e9:16:f8:a6:71:
         03:7c:5a:5d:d7:b9:50:8d:fc:f4:6c:32:ff:ad:ad:4e:f7:a8:
         f0:0b:f8:71:52:af:b2:f7:18:e3:e4:89:1f:c7:cd:f5:4a:0f:
         71:23:87:9c:44:94:e0:23:9a:d8:69:c7:87:50:da:0b:b4:1e:
         bc:95:b1:c5:37:83:fc:6f:5a:81:7d:63:a1:dd:c1:06:d5:8e:
         8e:f6:2c:89:e5:da:75:bc:2e:fd:56:1b:8e:8d:09:e1:48:93:
         8b:b3:20:9b:8e:5c:6d:bb:1e:3c:9e:60:09:59:b8:48:45:81:
         e2:e8:24:09
-----BEGIN CERTIFICATE-----
MIIFHjCCBAagAwIBAgIBAjANBgkqhkiG9w0BAQsFADCBnjELMAkGA1UEBhMCQ04x
CzAJBgNVBAgTAkJKMRAwDgYDVQQHEwdCZWlqaW5nMRMwEQYDVQQKEwp4aWFvbWlu
Z3lrMQwwCgYDVQQLEwNERVYxFjAUBgNVBAMTDXhpYW9taW5neWsgQ0ExDzANBgNV
BCkTBnNlcnZlcjEkMCIGCSqGSIb3DQEJARYVemh1eGlhb2xvbmcwNUAxMjYuY29t
MB4XDTE3MDEwNjA2MDYwNFoXDTI3MDEwNDA2MDYwNFowgZgxCzAJBgNVBAYTAkNO
MQswCQYDVQQIEwJCSjEQMA4GA1UEBxMHQmVpamluZzETMBEGA1UEChMKeGlhb21p
bmd5azEMMAoGA1UECxMDREVWMRAwDgYDVQQDEwdjbGllbnQxMQ8wDQYDVQQpEwZz
ZXJ2ZXIxJDAiBgkqhkiG9w0BCQEWFXpodXhpYW9sb25nMDVAMTI2LmNvbTCCASIw
DQYJKoZIhvcNAQEBBQADggEPADCCAQoCggEBAOUU7Gs7CKKyUqFrOFlHEuk8wbUP
XykM51ZR9b9ZFWpZxPReDQ4UaVMNfBkQqW3EngOp52n6cTwaqs+gDOzr8EctsR3C
pGeOoD7H1e2GQo0Gus4HqqX2TV3Y2wtZIRMprH2G5goJouBwo+/EELpttigjCKIY
9pbiUX4cm1tfVLP0nLAWxFGXahh6XNPs7P+HQCSeuWXH7R2oTZkkyTscg5yNuTmj
pcO/yNpzUEf6NdbB0YnNuUQFZhbSf69i+IYtZUwUgEDm6Pnl4nerc60vhFm9+TIb
qCEP5ZERVDZr+lRYNYiQSYv+bZ1APaP47gXb6NAqQiKHLuYLShyh6F//8z0CAwEA
AaOCAWkwggFlMAkGA1UdEwQCMAAwLQYJYIZIAYb4QgENBCAWHkVhc3ktUlNBIEdl
bmVyYXRlZCBDZXJ0aWZpY2F0ZTAdBgNVHQ4EFgQUtYpGBgRjrBp3ts6ga4Q3+TNq
s/0wgdMGA1UdIwSByzCByIAUuOmPkPcwitidFcRVW/mGMs4X6a6hgaSkgaEwgZ4x
CzAJBgNVBAYTAkNOMQswCQYDVQQIEwJCSjEQMA4GA1UEBxMHQmVpamluZzETMBEG
A1UEChMKeGlhb21pbmd5azEMMAoGA1UECxMDREVWMRYwFAYDVQQDEw14aWFvbWlu
Z3lrIENBMQ8wDQYDVQQpEwZzZXJ2ZXIxJDAiBgkqhkiG9w0BCQEWFXpodXhpYW9s
b25nMDVAMTI2LmNvbYIJAP1IHlvpT/rmMBMGA1UdJQQMMAoGCCsGAQUFBwMCMAsG
A1UdDwQEAwIHgDASBgNVHREECzAJggdjbGllbnQxMA0GCSqGSIb3DQEBCwUAA4IB
AQBqjxGQtH86cN1aK/XsjEPrHqWeWAbzLW/MfjQVVZ5lkBTo7VYRNSJZEEKDnuQn
tpAFDmrX5HOGI1WAx2qI8ZFf2x8g7216aEWR9AwX2N3I0Rfghpyi48DkbDaU4PJf
rkux0VtuZkEmibtYVjI096BazdersJRNeQM5guXHbT8/zaxZiFQdtmISOK/K6Rb4
pnEDfFpd17lQjfz0bDL/ra1O96jwC/hxUq+y9xjj5Ikfx831Sg9xI4ecRJTgI5rY
aceHUNoLtB68lbHFN4P8b1qBfWOh3cEG1Y6O9iyJ5dp1vC79VhuOjQnhSJOLsyCb
jlxtux48nmAJWbhIRYHi6CQJ
-----END CERTIFICATE-----
